
main.elf:     file format elf32-littlearm


Disassembly of section .text:

00000000 <main-0xc4>:
   0:	10000400 	andne	r0, r0, r0, lsl #8
   4:	00000115 	andeq	r0, r0, r5, lsl r1
	...

000000c4 <main>:
  c4:	b580      	push	{r7, lr}
  c6:	b082      	sub	sp, #8
  c8:	af00      	add	r7, sp, #0
  ca:	4b0e      	ldr	r3, [pc, #56]	; (104 <main+0x40>)
  cc:	4a0d      	ldr	r2, [pc, #52]	; (104 <main+0x40>)
  ce:	6812      	ldr	r2, [r2, #0]
  d0:	2108      	movs	r1, #8
  d2:	430a      	orrs	r2, r1
  d4:	601a      	str	r2, [r3, #0]
  d6:	4b0c      	ldr	r3, [pc, #48]	; (108 <main+0x44>)
  d8:	4a0b      	ldr	r2, [pc, #44]	; (108 <main+0x44>)
  da:	6812      	ldr	r2, [r2, #0]
  dc:	2104      	movs	r1, #4
  de:	430a      	orrs	r2, r1
  e0:	601a      	str	r2, [r3, #0]
  e2:	4b0a      	ldr	r3, [pc, #40]	; (10c <main+0x48>)
  e4:	4a09      	ldr	r2, [pc, #36]	; (10c <main+0x48>)
  e6:	6812      	ldr	r2, [r2, #0]
  e8:	2104      	movs	r1, #4
  ea:	430a      	orrs	r2, r1
  ec:	601a      	str	r2, [r3, #0]
  ee:	4b08      	ldr	r3, [pc, #32]	; (110 <main+0x4c>)
  f0:	607b      	str	r3, [r7, #4]
  f2:	e002      	b.n	fa <main+0x36>
  f4:	687b      	ldr	r3, [r7, #4]
  f6:	3b01      	subs	r3, #1
  f8:	607b      	str	r3, [r7, #4]
  fa:	687b      	ldr	r3, [r7, #4]
  fc:	2b00      	cmp	r3, #0
  fe:	dcf9      	bgt.n	f4 <main+0x30>
 100:	e7ef      	b.n	e2 <main+0x1e>
 102:	46c0      	nop			; (mov r8, r8)
 104:	4004c1c0 	andmi	ip, r4, r0, asr #3
 108:	a0002000 	andge	r2, r0, r0
 10c:	a0002300 	andge	r2, r0, r0, lsl #6
 110:	0003a980 	andeq	sl, r3, r0, lsl #19

00000114 <Reset_Handler>:
 114:	e7d6      	b.n	c4 <main>
 116:	46c0      	nop			; (mov r8, r8)
